target datalayout = "e-m:e-p270:32:32-p271:32:32-p272:64:64-i64:64-i128:128-f80:128-n8:16:32:64-S128"
target triple = "x86_64-pc-linux-gnu"

%struct.jpeg_decompress_struct = type { ptr, ptr, ptr, ptr, i32, i32, ptr, i32, i32, i32, i32, i32, i32, i32, double, i32, i32, i32, i32, i32, i32, i32, i32, i32, i32, i32, i32, i32, i32, i32, i32, i32, i32, ptr, i32, i32, i32, i32, i32, ptr, [4 x ptr], [4 x ptr], [4 x ptr], i32, ptr, i32, i32, [16 x i8], [16 x i8], [16 x i8], i32, i32, i8, i8, i8, i16, i16, i32, i8, i32, ptr, i32, i32, i32, i32, ptr, i32, [4 x ptr], i32, i32, i32, [10 x i32], i32, i32, i32, i32, i32, ptr, ptr, ptr, ptr, ptr, ptr, ptr, ptr, ptr, ptr, ptr }
%struct.lhuff_entropy_decoder = type { %struct.jpeg_entropy_decoder, %struct.bitread_perm_state, [4 x ptr], [10 x ptr], [10 x ptr], i32, [10 x %struct.lhd_output_ptr_info], [10 x i32] }
%struct.jpeg_entropy_decoder = type { ptr, ptr, ptr, ptr, i32 }
%struct.bitread_perm_state = type { i64, i32 }
%struct.lhd_output_ptr_info = type { i32, i32, i32 }
%struct.jpeg_component_info = type { i32, i32, i32, i32, i32, i32, i32, i32, i32, i32, i32, i32, i32, i32, i32, i32, i32, i32, i32, ptr, ptr }
%struct.jpeg_error_mgr = type { ptr, ptr, ptr, ptr, ptr, i32, %union.anon, i32, i64, ptr, i32, ptr, i32, i32 }
%union.anon = type { [8 x i32], [48 x i8] }

; Function Attrs: nounwind uwtable
define internal void @start_pass_lhuff_decoder(ptr noundef %0) #0 {
  %2 = alloca ptr, align 8
  %3 = alloca ptr, align 8
  %4 = alloca i32, align 4
  %5 = alloca i32, align 4
  %6 = alloca i32, align 4
  %7 = alloca i32, align 4
  %8 = alloca i32, align 4
  %9 = alloca i32, align 4
  %10 = alloca ptr, align 8
  store ptr %0, ptr %2, align 8, !tbaa !3
  call void @llvm.lifetime.start.p0(i64 8, ptr %3) #3
  %11 = load ptr, ptr %2, align 8, !tbaa !3
  %12 = getelementptr inbounds nuw %struct.jpeg_decompress_struct, ptr %11, i32 0, i32 83
  %13 = load ptr, ptr %12, align 8, !tbaa !36
  store ptr %13, ptr %3, align 8, !tbaa !35
  call void @llvm.lifetime.start.p0(i64 4, ptr %4) #3
  call void @llvm.lifetime.start.p0(i64 4, ptr %5) #3
  call void @llvm.lifetime.start.p0(i64 4, ptr %6) #3
  call void @llvm.lifetime.start.p0(i64 4, ptr %7) #3
  call void @llvm.lifetime.start.p0(i64 4, ptr %8) #3
  call void @llvm.lifetime.start.p0(i64 4, ptr %9) #3
  call void @llvm.lifetime.start.p0(i64 8, ptr %10) #3
  store i32 0, ptr %4, align 4, !tbaa !43
  br label %14

14:                                               ; preds = %68, %1
  %15 = load i32, ptr %4, align 4, !tbaa !43
  %16 = load ptr, ptr %2, align 8, !tbaa !3
  %17 = getelementptr inbounds nuw %struct.jpeg_decompress_struct, ptr %16, i32 0, i32 66
  %18 = load i32, ptr %17, align 8, !tbaa !46
  %19 = icmp slt i32 %15, %18
  br i1 %19, label %20, label %71

20:                                               ; preds = %14
  %21 = load ptr, ptr %2, align 8, !tbaa !3
  %22 = getelementptr inbounds nuw %struct.jpeg_decompress_struct, ptr %21, i32 0, i32 67
  %23 = load i32, ptr %4, align 4, !tbaa !43
  %24 = sext i32 %23 to i64
  %25 = getelementptr inbounds [4 x ptr], ptr %22, i64 0, i64 %24
  %26 = load ptr, ptr %25, align 8, !tbaa !35
  store ptr %26, ptr %10, align 8, !tbaa !35
  %27 = load ptr, ptr %10, align 8, !tbaa !35
  %28 = getelementptr inbounds nuw %struct.jpeg_component_info, ptr %27, i32 0, i32 5
  %29 = load i32, ptr %28, align 4, !tbaa !47
  store i32 %29, ptr %5, align 4, !tbaa !43
  %30 = load i32, ptr %5, align 4, !tbaa !43
  %31 = icmp slt i32 %30, 0
  br i1 %31, label %43, label %32

32:                                               ; preds = %20
  %33 = load i32, ptr %5, align 4, !tbaa !43
  %34 = icmp sge i32 %33, 4
  br i1 %34, label %43, label %35

35:                                               ; preds = %32
  %36 = load ptr, ptr %2, align 8, !tbaa !3
  %37 = getelementptr inbounds nuw %struct.jpeg_decompress_struct, ptr %36, i32 0, i32 41
  %38 = load i32, ptr %5, align 4, !tbaa !43
  %39 = sext i32 %38 to i64
  %40 = getelementptr inbounds [4 x ptr], ptr %37, i64 0, i64 %39
  %41 = load ptr, ptr %40, align 8, !tbaa !35
  %42 = icmp eq ptr %41, null
  br i1 %42, label %43, label %60

43:                                               ; preds = %35, %32, %20
  %44 = load ptr, ptr %2, align 8, !tbaa !3
  %45 = getelementptr inbounds nuw %struct.jpeg_decompress_struct, ptr %44, i32 0, i32 0
  %46 = load ptr, ptr %45, align 8, !tbaa !49
  %47 = getelementptr inbounds nuw %struct.jpeg_error_mgr, ptr %46, i32 0, i32 5
  store i32 50, ptr %47, align 8, !tbaa !50
  %48 = load i32, ptr %5, align 4, !tbaa !43
  %49 = load ptr, ptr %2, align 8, !tbaa !3
  %50 = getelementptr inbounds nuw %struct.jpeg_decompress_struct, ptr %49, i32 0, i32 0
  %51 = load ptr, ptr %50, align 8, !tbaa !49
  %52 = getelementptr inbounds nuw %struct.jpeg_error_mgr, ptr %51, i32 0, i32 6
  %53 = getelementptr inbounds [8 x i32], ptr %52, i64 0, i64 0
  store i32 %48, ptr %53, align 4, !tbaa !52
  %54 = load ptr, ptr %2, align 8, !tbaa !3
  %55 = getelementptr inbounds nuw %struct.jpeg_decompress_struct, ptr %54, i32 0, i32 0
  %56 = load ptr, ptr %55, align 8, !tbaa !49
  %57 = getelementptr inbounds nuw %struct.jpeg_error_mgr, ptr %56, i32 0, i32 0
  %58 = load ptr, ptr %57, align 8, !tbaa !53
  %59 = load ptr, ptr %2, align 8, !tbaa !3
  call void %58(ptr noundef %59)
  br label %60

60:                                               ; preds = %43, %35
  %61 = load ptr, ptr %2, align 8, !tbaa !3
  %62 = load i32, ptr %5, align 4, !tbaa !43
  %63 = load ptr, ptr %3, align 8, !tbaa !35
  %64 = getelementptr inbounds nuw %struct.lhuff_entropy_decoder, ptr %63, i32 0, i32 2
  %65 = load i32, ptr %5, align 4, !tbaa !43
  %66 = sext i32 %65 to i64
  %67 = getelementptr inbounds [4 x ptr], ptr %64, i64 0, i64 %66
  call void @jpeg_make_d_derived_tbl(ptr noundef %61, i32 noundef 1, i32 noundef %62, ptr noundef %67)
  br label %68

68:                                               ; preds = %60
  %69 = load i32, ptr %4, align 4, !tbaa !43
  %70 = add nsw i32 %69, 1
  store i32 %70, ptr %4, align 4, !tbaa !43
  br label %14, !llvm.loop !54

71:                                               ; preds = %14
  store i32 0, ptr %6, align 4, !tbaa !43
  store i32 0, ptr %7, align 4, !tbaa !43
  br label %72

72:                                               ; preds = %160, %71
  %73 = load i32, ptr %6, align 4, !tbaa !43
  %74 = load ptr, ptr %2, align 8, !tbaa !3
  %75 = getelementptr inbounds nuw %struct.jpeg_decompress_struct, ptr %74, i32 0, i32 70
  %76 = load i32, ptr %75, align 8, !tbaa !55
  %77 = icmp slt i32 %73, %76
  br i1 %77, label %78, label %161

78:                                               ; preds = %72
  %79 = load ptr, ptr %2, align 8, !tbaa !3
  %80 = getelementptr inbounds nuw %struct.jpeg_decompress_struct, ptr %79, i32 0, i32 67
  %81 = load ptr, ptr %2, align 8, !tbaa !3
  %82 = getelementptr inbounds nuw %struct.jpeg_decompress_struct, ptr %81, i32 0, i32 71
  %83 = load i32, ptr %6, align 4, !tbaa !43
  %84 = sext i32 %83 to i64
  %85 = getelementptr inbounds [10 x i32], ptr %82, i64 0, i64 %84
  %86 = load i32, ptr %85, align 4, !tbaa !43
  %87 = sext i32 %86 to i64
  %88 = getelementptr inbounds [4 x ptr], ptr %80, i64 0, i64 %87
  %89 = load ptr, ptr %88, align 8, !tbaa !35
  store ptr %89, ptr %10, align 8, !tbaa !35
  %90 = load ptr, ptr %10, align 8, !tbaa !35
  %91 = getelementptr inbounds nuw %struct.jpeg_component_info, ptr %90, i32 0, i32 1
  %92 = load i32, ptr %91, align 4, !tbaa !56
  store i32 %92, ptr %4, align 4, !tbaa !43
  store i32 0, ptr %8, align 4, !tbaa !43
  br label %93

93:                                               ; preds = %155, %78
  %94 = load i32, ptr %8, align 4, !tbaa !43
  %95 = load ptr, ptr %10, align 8, !tbaa !35
  %96 = getelementptr inbounds nuw %struct.jpeg_component_info, ptr %95, i32 0, i32 14
  %97 = load i32, ptr %96, align 8, !tbaa !57
  %98 = icmp slt i32 %94, %97
  br i1 %98, label %99, label %160

99:                                               ; preds = %93
  %100 = load i32, ptr %4, align 4, !tbaa !43
  %101 = load ptr, ptr %3, align 8, !tbaa !35
  %102 = getelementptr inbounds nuw %struct.lhuff_entropy_decoder, ptr %101, i32 0, i32 6
  %103 = load i32, ptr %7, align 4, !tbaa !43
  %104 = sext i32 %103 to i64
  %105 = getelementptr inbounds [10 x %struct.lhd_output_ptr_info], ptr %102, i64 0, i64 %104
  %106 = getelementptr inbounds nuw %struct.lhd_output_ptr_info, ptr %105, i32 0, i32 0
  store i32 %100, ptr %106, align 4, !tbaa !58
  %107 = load i32, ptr %8, align 4, !tbaa !43
  %108 = load ptr, ptr %3, align 8, !tbaa !35
  %109 = getelementptr inbounds nuw %struct.lhuff_entropy_decoder, ptr %108, i32 0, i32 6
  %110 = load i32, ptr %7, align 4, !tbaa !43
  %111 = sext i32 %110 to i64
  %112 = getelementptr inbounds [10 x %struct.lhd_output_ptr_info], ptr %109, i64 0, i64 %111
  %113 = getelementptr inbounds nuw %struct.lhd_output_ptr_info, ptr %112, i32 0, i32 1
  store i32 %107, ptr %113, align 4, !tbaa !60
  %114 = load ptr, ptr %10, align 8, !tbaa !35
  %115 = getelementptr inbounds nuw %struct.jpeg_component_info, ptr %114, i32 0, i32 13
  %116 = load i32, ptr %115, align 4, !tbaa !61
  %117 = load ptr, ptr %3, align 8, !tbaa !35
  %118 = getelementptr inbounds nuw %struct.lhuff_entropy_decoder, ptr %117, i32 0, i32 6
  %119 = load i32, ptr %7, align 4, !tbaa !43
  %120 = sext i32 %119 to i64
  %121 = getelementptr inbounds [10 x %struct.lhd_output_ptr_info], ptr %118, i64 0, i64 %120
  %122 = getelementptr inbounds nuw %struct.lhd_output_ptr_info, ptr %121, i32 0, i32 2
  store i32 %116, ptr %122, align 4, !tbaa !62
  store i32 0, ptr %9, align 4, !tbaa !43
  br label %123

123:                                              ; preds = %149, %99
  %124 = load i32, ptr %9, align 4, !tbaa !43
  %125 = load ptr, ptr %10, align 8, !tbaa !35
  %126 = getelementptr inbounds nuw %struct.jpeg_component_info, ptr %125, i32 0, i32 13
  %127 = load i32, ptr %126, align 4, !tbaa !61
  %128 = icmp slt i32 %124, %127
  br i1 %128, label %129, label %154

129:                                              ; preds = %123
  %130 = load i32, ptr %7, align 4, !tbaa !43
  %131 = load ptr, ptr %3, align 8, !tbaa !35
  %132 = getelementptr inbounds nuw %struct.lhuff_entropy_decoder, ptr %131, i32 0, i32 7
  %133 = load i32, ptr %6, align 4, !tbaa !43
  %134 = sext i32 %133 to i64
  %135 = getelementptr inbounds [10 x i32], ptr %132, i64 0, i64 %134
  store i32 %130, ptr %135, align 4, !tbaa !43
  %136 = load ptr, ptr %3, align 8, !tbaa !35
  %137 = getelementptr inbounds nuw %struct.lhuff_entropy_decoder, ptr %136, i32 0, i32 2
  %138 = load ptr, ptr %10, align 8, !tbaa !35
  %139 = getelementptr inbounds nuw %struct.jpeg_component_info, ptr %138, i32 0, i32 5
  %140 = load i32, ptr %139, align 4, !tbaa !47
  %141 = sext i32 %140 to i64
  %142 = getelementptr inbounds [4 x ptr], ptr %137, i64 0, i64 %141
  %143 = load ptr, ptr %142, align 8, !tbaa !35
  %144 = load ptr, ptr %3, align 8, !tbaa !35
  %145 = getelementptr inbounds nuw %struct.lhuff_entropy_decoder, ptr %144, i32 0, i32 3
  %146 = load i32, ptr %6, align 4, !tbaa !43
  %147 = sext i32 %146 to i64
  %148 = getelementptr inbounds [10 x ptr], ptr %145, i64 0, i64 %147
  store ptr %143, ptr %148, align 8, !tbaa !35
  br label %149

149:                                              ; preds = %129
  %150 = load i32, ptr %9, align 4, !tbaa !43
  %151 = add nsw i32 %150, 1
  store i32 %151, ptr %9, align 4, !tbaa !43
  %152 = load i32, ptr %6, align 4, !tbaa !43
  %153 = add nsw i32 %152, 1
  store i32 %153, ptr %6, align 4, !tbaa !43
  br label %123, !llvm.loop !63

154:                                              ; preds = %123
  br label %155

155:                                              ; preds = %154
  %156 = load i32, ptr %8, align 4, !tbaa !43
  %157 = add nsw i32 %156, 1
  store i32 %157, ptr %8, align 4, !tbaa !43
  %158 = load i32, ptr %7, align 4, !tbaa !43
  %159 = add nsw i32 %158, 1
  store i32 %159, ptr %7, align 4, !tbaa !43
  br label %93, !llvm.loop !64

160:                                              ; preds = %93
  br label %72, !llvm.loop !65

161:                                              ; preds = %72
  %162 = load i32, ptr %7, align 4, !tbaa !43
  %163 = load ptr, ptr %3, align 8, !tbaa !35
  %164 = getelementptr inbounds nuw %struct.lhuff_entropy_decoder, ptr %163, i32 0, i32 5
  store i32 %162, ptr %164, align 8, !tbaa !66
  %165 = load ptr, ptr %3, align 8, !tbaa !35
  %166 = getelementptr inbounds nuw %struct.lhuff_entropy_decoder, ptr %165, i32 0, i32 1
  %167 = getelementptr inbounds nuw %struct.bitread_perm_state, ptr %166, i32 0, i32 1
  store i32 0, ptr %167, align 8, !tbaa !67
  %168 = load ptr, ptr %3, align 8, !tbaa !35
  %169 = getelementptr inbounds nuw %struct.lhuff_entropy_decoder, ptr %168, i32 0, i32 1
  %170 = getelementptr inbounds nuw %struct.bitread_perm_state, ptr %169, i32 0, i32 0
  store i64 0, ptr %170, align 8, !tbaa !68
  %171 = load ptr, ptr %3, align 8, !tbaa !35
  %172 = getelementptr inbounds nuw %struct.lhuff_entropy_decoder, ptr %171, i32 0, i32 0
  %173 = getelementptr inbounds nuw %struct.jpeg_entropy_decoder, ptr %172, i32 0, i32 4
  store i32 0, ptr %173, align 8, !tbaa !69
  call void @llvm.lifetime.end.p0(i64 8, ptr %10) #3
  call void @llvm.lifetime.end.p0(i64 4, ptr %9) #3
  call void @llvm.lifetime.end.p0(i64 4, ptr %8) #3
  call void @llvm.lifetime.end.p0(i64 4, ptr %7) #3
  call void @llvm.lifetime.end.p0(i64 4, ptr %6) #3
  call void @llvm.lifetime.end.p0(i64 4, ptr %5) #3
  call void @llvm.lifetime.end.p0(i64 4, ptr %4) #3
  call void @llvm.lifetime.end.p0(i64 8, ptr %3) #3
  ret void
}