; Function Attrs: nounwind uwtable
define internal void @start_pass_lhuff_decoder(ptr noundef %0) #0 {
  %2 = getelementptr inbounds nuw i8, ptr %0, i64 592
  %3 = load ptr, ptr %2, align 8, !tbaa !33
  %4 = getelementptr inbounds nuw i8, ptr %0, i64 432
  %5 = load i32, ptr %4, align 8, !tbaa !41
  %6 = icmp sgt i32 %5, 0
  br i1 %6, label %.lr.ph, label %.preheader

.lr.ph:                                           ; preds = %1
  %7 = getelementptr inbounds nuw i8, ptr %0, i64 440
  %8 = getelementptr inbounds nuw i8, ptr %0, i64 232
  %9 = getelementptr inbounds nuw i8, ptr %3, i64 56
  br label %19

.preheader:                                       ; preds = %35, %1
  %10 = getelementptr inbounds nuw i8, ptr %0, i64 480
  %11 = load i32, ptr %10, align 8, !tbaa !42
  %12 = icmp sgt i32 %11, 0
  br i1 %12, label %.lr.ph75, label %._crit_edge76

.lr.ph75:                                         ; preds = %.preheader
  %13 = getelementptr inbounds nuw i8, ptr %0, i64 440
  %14 = getelementptr inbounds nuw i8, ptr %0, i64 484
  %15 = getelementptr inbounds nuw i8, ptr %3, i64 252
  %16 = getelementptr inbounds nuw i8, ptr %3, i64 372
  %17 = getelementptr inbounds nuw i8, ptr %3, i64 56
  %18 = getelementptr inbounds nuw i8, ptr %3, i64 88
  br label %45

19:                                               ; preds = %.lr.ph, %35
  %indvars.iv = phi i64 [ 0, %.lr.ph ], [ %indvars.iv.next, %35 ]
  %20 = getelementptr inbounds nuw [4 x ptr], ptr %7, i64 0, i64 %indvars.iv
  %21 = load ptr, ptr %20, align 8, !tbaa !40
  %22 = getelementptr inbounds nuw i8, ptr %21, i64 20
  %23 = load i32, ptr %22, align 4, !tbaa !43
  %or.cond = icmp ugt i32 %23, 3
  br i1 %or.cond, label %29, label %24

24:                                               ; preds = %19
  %25 = zext nneg i32 %23 to i64
  %26 = getelementptr inbounds nuw [4 x ptr], ptr %8, i64 0, i64 %25
  %27 = load ptr, ptr %26, align 8, !tbaa !40
  %28 = icmp eq ptr %27, null
  br i1 %28, label %29, label %35

29:                                               ; preds = %24, %19
  %30 = load ptr, ptr %0, align 8, !tbaa !45
  %31 = getelementptr inbounds nuw i8, ptr %30, i64 40
  store i32 50, ptr %31, align 8, !tbaa !46
  %32 = getelementptr inbounds nuw i8, ptr %30, i64 44
  store i32 %23, ptr %32, align 4, !tbaa !48
  %33 = load ptr, ptr %0, align 8, !tbaa !45
  %34 = load ptr, ptr %33, align 8, !tbaa !49
  tail call void %34(ptr noundef nonnull %0) #4
  br label %35

35:                                               ; preds = %29, %24
  %36 = sext i32 %23 to i64
  %37 = getelementptr inbounds [4 x ptr], ptr %9, i64 0, i64 %36
  tail call void @jpeg_make_d_derived_tbl(ptr noundef nonnull %0, i32 noundef 1, i32 noundef %23, ptr noundef nonnull %37) #4
  %indvars.iv.next = add nuw nsw i64 %indvars.iv, 1
  %38 = load i32, ptr %4, align 8, !tbaa !41
  %39 = sext i32 %38 to i64
  %40 = icmp slt i64 %indvars.iv.next, %39
  br i1 %40, label %19, label %.preheader, !llvm.loop !50

.loopexit.loopexit:                               ; preds = %._crit_edge
  %41 = trunc nsw i64 %indvars.iv.next89 to i32
  %.pre91 = load i32, ptr %10, align 8, !tbaa !42
  br label %.loopexit

.loopexit.loopexit78:                             ; preds = %.lr.ph69.split.us
  %42 = trunc nsw i64 %indvars.iv.next83 to i32
  br label %.loopexit

.loopexit:                                        ; preds = %.loopexit.loopexit78, %.loopexit.loopexit, %45
  %43 = phi i32 [ %46, %45 ], [ %.pre91, %.loopexit.loopexit ], [ %46, %.loopexit.loopexit78 ]
  %.158.lcssa = phi i32 [ %.05773, %45 ], [ %.2.lcssa, %.loopexit.loopexit ], [ %.05773, %.loopexit.loopexit78 ]
  %.1.lcssa = phi i32 [ %.05674, %45 ], [ %41, %.loopexit.loopexit ], [ %42, %.loopexit.loopexit78 ]
  %44 = icmp slt i32 %.158.lcssa, %43
  br i1 %44, label %45, label %._crit_edge76, !llvm.loop !52

45:                                               ; preds = %.lr.ph75, %.loopexit
  %46 = phi i32 [ %11, %.lr.ph75 ], [ %43, %.loopexit ]
  %.05674 = phi i32 [ 0, %.lr.ph75 ], [ %.1.lcssa, %.loopexit ]
  %.05773 = phi i32 [ 0, %.lr.ph75 ], [ %.158.lcssa, %.loopexit ]
  %47 = sext i32 %.05773 to i64
  %48 = getelementptr inbounds [10 x i32], ptr %14, i64 0, i64 %47
  %49 = load i32, ptr %48, align 4, !tbaa !53
  %50 = sext i32 %49 to i64
  %51 = getelementptr inbounds [4 x ptr], ptr %13, i64 0, i64 %50
  %52 = load ptr, ptr %51, align 8, !tbaa !40
  %53 = getelementptr inbounds nuw i8, ptr %52, i64 4
  %54 = load i32, ptr %53, align 4, !tbaa !54
  %55 = getelementptr inbounds nuw i8, ptr %52, i64 56
  %56 = load i32, ptr %55, align 8, !tbaa !55
  %57 = icmp sgt i32 %56, 0
  br i1 %57, label %.lr.ph69, label %.loopexit

.lr.ph69:                                         ; preds = %45
  %58 = getelementptr inbounds nuw i8, ptr %52, i64 52
  %59 = getelementptr inbounds nuw i8, ptr %52, i64 20
  %60 = load i32, ptr %58, align 4, !tbaa !56
  %61 = icmp sgt i32 %60, 0
  %62 = sext i32 %.05674 to i64
  br i1 %61, label %.lr.ph69.split, label %.lr.ph69.split.us

.lr.ph69.split.us:                                ; preds = %.lr.ph69, %.lr.ph69.split.us
  %indvars.iv82 = phi i64 [ %indvars.iv.next83, %.lr.ph69.split.us ], [ %62, %.lr.ph69 ]
  %.05567.us = phi i32 [ %66, %.lr.ph69.split.us ], [ 0, %.lr.ph69 ]
  %63 = getelementptr inbounds [10 x %struct.lhd_output_ptr_info], ptr %15, i64 0, i64 %indvars.iv82
  store i32 %54, ptr %63, align 4, !tbaa !57
  %64 = getelementptr inbounds nuw i8, ptr %63, i64 4
  store i32 %.05567.us, ptr %64, align 4, !tbaa !59
  %65 = getelementptr inbounds nuw i8, ptr %63, i64 8
  store i32 %60, ptr %65, align 4, !tbaa !60
  %66 = add nuw nsw i32 %.05567.us, 1
  %indvars.iv.next83 = add nsw i64 %indvars.iv82, 1
  %exitcond.not = icmp eq i32 %66, %56
  br i1 %exitcond.not, label %.loopexit.loopexit78, label %.lr.ph69.split.us, !llvm.loop !61

.lr.ph69.split:                                   ; preds = %.lr.ph69, %._crit_edge
  %67 = phi i32 [ %85, %._crit_edge ], [ %56, %.lr.ph69 ]
  %68 = phi i32 [ %86, %._crit_edge ], [ %60, %.lr.ph69 ]
  %indvars.iv88 = phi i64 [ %indvars.iv.next89, %._crit_edge ], [ %62, %.lr.ph69 ]
  %.05567 = phi i32 [ %87, %._crit_edge ], [ 0, %.lr.ph69 ]
  %.15865 = phi i32 [ %.2.lcssa, %._crit_edge ], [ %.05773, %.lr.ph69 ]
  %69 = getelementptr inbounds [10 x %struct.lhd_output_ptr_info], ptr %15, i64 0, i64 %indvars.iv88
  store i32 %54, ptr %69, align 4, !tbaa !57
  %70 = getelementptr inbounds nuw i8, ptr %69, i64 4
  store i32 %.05567, ptr %70, align 4, !tbaa !59
  %71 = getelementptr inbounds nuw i8, ptr %69, i64 8
  store i32 %68, ptr %71, align 4, !tbaa !60
  %72 = icmp sgt i32 %68, 0
  br i1 %72, label %.lr.ph64.preheader, label %._crit_edge

.lr.ph64.preheader:                               ; preds = %.lr.ph69.split
  %73 = sext i32 %.15865 to i64
  %74 = trunc nsw i64 %indvars.iv88 to i32
  br label %.lr.ph64

.lr.ph64:                                         ; preds = %.lr.ph64.preheader, %.lr.ph64
  %indvars.iv85 = phi i64 [ %73, %.lr.ph64.preheader ], [ %indvars.iv.next86, %.lr.ph64 ]
  %.063 = phi i32 [ 0, %.lr.ph64.preheader ], [ %81, %.lr.ph64 ]
  %75 = getelementptr inbounds [10 x i32], ptr %16, i64 0, i64 %indvars.iv85
  store i32 %74, ptr %75, align 4, !tbaa !53
  %76 = load i32, ptr %59, align 4, !tbaa !43
  %77 = sext i32 %76 to i64
  %78 = getelementptr inbounds [4 x ptr], ptr %17, i64 0, i64 %77
  %79 = load ptr, ptr %78, align 8, !tbaa !40
  %80 = getelementptr inbounds [10 x ptr], ptr %18, i64 0, i64 %indvars.iv85
  store ptr %79, ptr %80, align 8, !tbaa !40
  %81 = add nuw nsw i32 %.063, 1
  %indvars.iv.next86 = add nsw i64 %indvars.iv85, 1
  %82 = load i32, ptr %58, align 4, !tbaa !56
  %83 = icmp slt i32 %81, %82
  br i1 %83, label %.lr.ph64, label %._crit_edge.loopexit, !llvm.loop !62

._crit_edge.loopexit:                             ; preds = %.lr.ph64
  %84 = trunc nsw i64 %indvars.iv.next86 to i32
  %.pre = load i32, ptr %55, align 8, !tbaa !55
  br label %._crit_edge

._crit_edge:                                      ; preds = %._crit_edge.loopexit, %.lr.ph69.split
  %85 = phi i32 [ %67, %.lr.ph69.split ], [ %.pre, %._crit_edge.loopexit ]
  %86 = phi i32 [ %68, %.lr.ph69.split ], [ %82, %._crit_edge.loopexit ]
  %.2.lcssa = phi i32 [ %.15865, %.lr.ph69.split ], [ %84, %._crit_edge.loopexit ]
  %87 = add nuw nsw i32 %.05567, 1
  %indvars.iv.next89 = add nsw i64 %indvars.iv88, 1
  %88 = icmp slt i32 %87, %85
  br i1 %88, label %.lr.ph69.split, label %.loopexit.loopexit, !llvm.loop !63

._crit_edge76:                                    ; preds = %.loopexit, %.preheader
  %.056.lcssa = phi i32 [ 0, %.preheader ], [ %.1.lcssa, %.loopexit ]
  %89 = getelementptr inbounds nuw i8, ptr %3, i64 248
  store i32 %.056.lcssa, ptr %89, align 8, !tbaa !65
  %90 = getelementptr inbounds nuw i8, ptr %3, i64 40
  %91 = getelementptr inbounds nuw i8, ptr %3, i64 48
  store i32 0, ptr %91, align 8, !tbaa !66
  store i64 0, ptr %90, align 8, !tbaa !67
  %92 = getelementptr inbounds nuw i8, ptr %3, i64 32
  store i32 0, ptr %92, align 8, !tbaa !68
  ret void
}